target datalayout = "e-m:e-p270:32:32-p271:32:32-p272:64:64-i64:64-i128:128-f80:128-n8:16:32:64-S128"
target triple = "x86_64-pc-linux-gnu"

%struct.engine_st = type { ptr, ptr, ptr, ptr, ptr, ptr, ptr, ptr, ptr, ptr, ptr, ptr, ptr, ptr, ptr, ptr, ptr, ptr, ptr, i32, %struct.CRYPTO_REF_COUNT, i32, %struct.crypto_ex_data_st, ptr, ptr, ptr, ptr, ptr }
%struct.CRYPTO_REF_COUNT = type { i32 }
%struct.crypto_ex_data_st = type { ptr, ptr }
%struct.evp_pkey_asn1_method_st = type { i32, i32, i64, ptr, ptr, ptr, ptr, ptr, ptr, ptr, ptr, ptr, ptr, ptr, ptr, ptr, ptr, ptr, ptr, ptr, ptr, ptr, ptr, ptr, ptr, ptr, ptr, ptr, ptr, ptr, ptr, ptr, ptr, ptr, ptr, ptr, ptr, ptr, ptr, ptr, ptr }

; Function Attrs: nounwind uwtable
define ptr @ENGINE_get_pkey_asn1_meth_str(ptr noundef %0, ptr noundef %1, i32 noundef %2) #0 {
  %4 = alloca ptr, align 8
  %5 = alloca ptr, align 8
  %6 = alloca ptr, align 8
  %7 = alloca i32, align 4
  %8 = alloca i32, align 4
  %9 = alloca i32, align 4
  %10 = alloca ptr, align 8
  %11 = alloca ptr, align 8
  %12 = alloca i32, align 4
  store ptr %0, ptr %5, align 8, !tbaa !3
  store ptr %1, ptr %6, align 8, !tbaa !31
  store i32 %2, ptr %7, align 4, !tbaa !22
  call void @llvm.lifetime.start.p0(i64 4, ptr %8) #5
  call void @llvm.lifetime.start.p0(i64 4, ptr %9) #5
  call void @llvm.lifetime.start.p0(i64 8, ptr %10) #5
  call void @llvm.lifetime.start.p0(i64 8, ptr %11) #5
  %13 = load ptr, ptr %5, align 8, !tbaa !3
  %14 = getelementptr inbounds nuw %struct.engine_st, ptr %13, i32 0, i32 10
  %15 = load ptr, ptr %14, align 8, !tbaa !8
  %16 = icmp ne ptr %15, null
  br i1 %16, label %18, label %17

17:                                               ; preds = %3
  store ptr null, ptr %4, align 8
  store i32 1, ptr %12, align 4
  br label %72

18:                                               ; preds = %3
  %19 = load i32, ptr %7, align 4, !tbaa !22
  %20 = icmp eq i32 %19, -1
  br i1 %20, label %21, label %25

21:                                               ; preds = %18
  %22 = load ptr, ptr %6, align 8, !tbaa !31
  %23 = call i64 @strlen(ptr noundef %22) #6
  %24 = trunc i64 %23 to i32
  store i32 %24, ptr %7, align 4, !tbaa !22
  br label %25

25:                                               ; preds = %21, %18
  %26 = load ptr, ptr %5, align 8, !tbaa !3
  %27 = getelementptr inbounds nuw %struct.engine_st, ptr %26, i32 0, i32 10
  %28 = load ptr, ptr %27, align 8, !tbaa !8
  %29 = load ptr, ptr %5, align 8, !tbaa !3
  %30 = call i32 %28(ptr noundef %29, ptr noundef null, ptr noundef %10, i32 noundef 0)
  store i32 %30, ptr %9, align 4, !tbaa !22
  store i32 0, ptr %8, align 4, !tbaa !22
  br label %31

31:                                               ; preds = %68, %25
  %32 = load i32, ptr %8, align 4, !tbaa !22
  %33 = load i32, ptr %9, align 4, !tbaa !22
  %34 = icmp slt i32 %32, %33
  br i1 %34, label %35, label %71

35:                                               ; preds = %31
  %36 = load ptr, ptr %5, align 8, !tbaa !3
  %37 = getelementptr inbounds nuw %struct.engine_st, ptr %36, i32 0, i32 10
  %38 = load ptr, ptr %37, align 8, !tbaa !8
  %39 = load ptr, ptr %5, align 8, !tbaa !3
  %40 = load ptr, ptr %10, align 8, !tbaa !23
  %41 = load i32, ptr %8, align 4, !tbaa !22
  %42 = sext i32 %41 to i64
  %43 = getelementptr inbounds i32, ptr %40, i64 %42
  %44 = load i32, ptr %43, align 4, !tbaa !22
  %45 = call i32 %38(ptr noundef %39, ptr noundef %11, ptr noundef null, i32 noundef %44)
  %46 = load ptr, ptr %11, align 8, !tbaa !28
  %47 = icmp ne ptr %46, null
  br i1 %47, label %48, label %67

48:                                               ; preds = %35
  %49 = load ptr, ptr %11, align 8, !tbaa !28
  %50 = getelementptr inbounds nuw %struct.evp_pkey_asn1_method_st, ptr %49, i32 0, i32 3
  %51 = load ptr, ptr %50, align 8, !tbaa !32
  %52 = call i64 @strlen(ptr noundef %51) #6
  %53 = trunc i64 %52 to i32
  %54 = load i32, ptr %7, align 4, !tbaa !22
  %55 = icmp eq i32 %53, %54
  br i1 %55, label %56, label %67

56:                                               ; preds = %48
  %57 = load ptr, ptr %11, align 8, !tbaa !28
  %58 = getelementptr inbounds nuw %struct.evp_pkey_asn1_method_st, ptr %57, i32 0, i32 3
  %59 = load ptr, ptr %58, align 8, !tbaa !32
  %60 = load ptr, ptr %6, align 8, !tbaa !31
  %61 = load i32, ptr %7, align 4, !tbaa !22
  %62 = sext i32 %61 to i64
  %63 = call i32 @OPENSSL_strncasecmp(ptr noundef %59, ptr noundef %60, i64 noundef %62)
  %64 = icmp eq i32 %63, 0
  br i1 %64, label %65, label %67

65:                                               ; preds = %56
  %66 = load ptr, ptr %11, align 8, !tbaa !28
  store ptr %66, ptr %4, align 8
  store i32 1, ptr %12, align 4
  br label %72

67:                                               ; preds = %56, %48, %35
  br label %68

68:                                               ; preds = %67
  %69 = load i32, ptr %8, align 4, !tbaa !22
  %70 = add nsw i32 %69, 1
  store i32 %70, ptr %8, align 4, !tbaa !22
  br label %31, !llvm.loop !35

71:                                               ; preds = %31
  store ptr null, ptr %4, align 8
  store i32 1, ptr %12, align 4
  br label %72

72:                                               ; preds = %71, %65, %17
  call void @llvm.lifetime.end.p0(i64 8, ptr %11) #5
  call void @llvm.lifetime.end.p0(i64 8, ptr %10) #5
  call void @llvm.lifetime.end.p0(i64 4, ptr %9) #5
  call void @llvm.lifetime.end.p0(i64 4, ptr %8) #5
  %73 = load ptr, ptr %4, align 8
  ret ptr %73
}