; Function Attrs: nounwind uwtable
define ptr @ENGINE_get_pkey_asn1_meth_str(ptr noundef %0, ptr noundef %1, i32 noundef %2) local_unnamed_addr #0 {
  %4 = alloca ptr, align 8
  %5 = alloca ptr, align 8
  call void @llvm.lifetime.start.p0(i64 8, ptr nonnull %4) #7
  call void @llvm.lifetime.start.p0(i64 8, ptr nonnull %5) #7
  %6 = getelementptr inbounds nuw i8, ptr %0, i64 80
  %7 = load ptr, ptr %6, align 8, !tbaa !3
  %.not = icmp eq ptr %7, null
  br i1 %.not, label %.loopexit, label %8

8:                                                ; preds = %3
  %9 = icmp eq i32 %2, -1
  br i1 %9, label %10, label %13

10:                                               ; preds = %8
  %11 = tail call i64 @strlen(ptr noundef nonnull dereferenceable(1) %1) #8
  %12 = trunc i64 %11 to i32
  br label %13

13:                                               ; preds = %10, %8
  %.015 = phi i32 [ %12, %10 ], [ %2, %8 ]
  %14 = call i32 %7(ptr noundef nonnull %0, ptr noundef null, ptr noundef nonnull %4, i32 noundef 0) #7
  %15 = icmp sgt i32 %14, 0
  br i1 %15, label %.lr.ph, label %.loopexit

.lr.ph:                                           ; preds = %13
  %16 = sext i32 %.015 to i64
  %wide.trip.count = zext nneg i32 %14 to i64
  br label %17

17:                                               ; preds = %.lr.ph, %35
  %indvars.iv = phi i64 [ 0, %.lr.ph ], [ %indvars.iv.next, %35 ]
  %18 = load ptr, ptr %6, align 8, !tbaa !3
  %19 = load ptr, ptr %4, align 8, !tbaa !21
  %20 = getelementptr inbounds nuw i32, ptr %19, i64 %indvars.iv
  %21 = load i32, ptr %20, align 4, !tbaa !27
  %22 = call i32 %18(ptr noundef nonnull %0, ptr noundef nonnull %5, ptr noundef null, i32 noundef %21) #7
  %23 = load ptr, ptr %5, align 8, !tbaa !25
  %.not18 = icmp eq ptr %23, null
  br i1 %.not18, label %35, label %24

24:                                               ; preds = %17
  %25 = getelementptr inbounds nuw i8, ptr %23, i64 16
  %26 = load ptr, ptr %25, align 8, !tbaa !29
  %27 = call i64 @strlen(ptr noundef nonnull dereferenceable(1) %26) #8
  %28 = trunc i64 %27 to i32
  %29 = icmp eq i32 %.015, %28
  br i1 %29, label %30, label %35

30:                                               ; preds = %24
  %31 = call i32 @OPENSSL_strncasecmp(ptr noundef nonnull %26, ptr noundef %1, i64 noundef %16) #7
  %32 = icmp eq i32 %31, 0
  br i1 %32, label %33, label %35

33:                                               ; preds = %30
  %34 = load ptr, ptr %5, align 8, !tbaa !25
  br label %.loopexit

35:                                               ; preds = %17, %24, %30
  %indvars.iv.next = add nuw nsw i64 %indvars.iv, 1
  %exitcond.not = icmp eq i64 %indvars.iv.next, %wide.trip.count
  br i1 %exitcond.not, label %.loopexit, label %17, !llvm.loop !32

.loopexit:                                        ; preds = %35, %13, %3, %33
  %.0 = phi ptr [ %34, %33 ], [ null, %3 ], [ null, %13 ], [ null, %35 ]
  call void @llvm.lifetime.end.p0(i64 8, ptr nonnull %5) #7
  call void @llvm.lifetime.end.p0(i64 8, ptr nonnull %4) #7
  ret ptr %.0
}